target datalayout = "e-m:e-p270:32:32-p271:32:32-p272:64:64-i64:64-i128:128-f80:128-n8:16:32:64-S128"
target triple = "x86_64-pc-linux-gnu"

; Function Attrs: nounwind uwtable
define internal void @bn_sqr_normal(ptr noundef %0, ptr noundef %1, i32 noundef %2, ptr noundef %3) #0 {
  %5 = alloca ptr, align 8
  %6 = alloca ptr, align 8
  %7 = alloca i32, align 4
  %8 = alloca ptr, align 8
  %9 = alloca i32, align 4
  %10 = alloca i32, align 4
  %11 = alloca i32, align 4
  %12 = alloca ptr, align 8
  %13 = alloca ptr, align 8
  store ptr %0, ptr %5, align 8, !tbaa !20
  store ptr %1, ptr %6, align 8, !tbaa !20
  store i32 %2, ptr %7, align 4, !tbaa !13
  store ptr %3, ptr %8, align 8, !tbaa !20
  call void @llvm.lifetime.start.p0(i64 4, ptr %9) #4
  call void @llvm.lifetime.start.p0(i64 4, ptr %10) #4
  call void @llvm.lifetime.start.p0(i64 4, ptr %11) #4
  call void @llvm.lifetime.start.p0(i64 8, ptr %12) #4
  call void @llvm.lifetime.start.p0(i64 8, ptr %13) #4
  %14 = load i32, ptr %7, align 4, !tbaa !13
  %15 = mul nsw i32 %14, 2
  store i32 %15, ptr %11, align 4, !tbaa !13
  %16 = load ptr, ptr %6, align 8, !tbaa !20
  store ptr %16, ptr %12, align 8, !tbaa !20
  %17 = load ptr, ptr %5, align 8, !tbaa !20
  store ptr %17, ptr %13, align 8, !tbaa !20
  %18 = load ptr, ptr %13, align 8, !tbaa !20
  %19 = load i32, ptr %11, align 4, !tbaa !13
  %20 = sub nsw i32 %19, 1
  %21 = sext i32 %20 to i64
  %22 = getelementptr inbounds i64, ptr %18, i64 %21
  store i64 0, ptr %22, align 8, !tbaa !21
  %23 = load ptr, ptr %13, align 8, !tbaa !20
  %24 = getelementptr inbounds i64, ptr %23, i64 0
  store i64 0, ptr %24, align 8, !tbaa !21
  %25 = load ptr, ptr %13, align 8, !tbaa !20
  %26 = getelementptr inbounds nuw i64, ptr %25, i32 1
  store ptr %26, ptr %13, align 8, !tbaa !20
  %27 = load i32, ptr %7, align 4, !tbaa !13
  store i32 %27, ptr %10, align 4, !tbaa !13
  %28 = load i32, ptr %10, align 4, !tbaa !13
  %29 = add nsw i32 %28, -1
  store i32 %29, ptr %10, align 4, !tbaa !13
  %30 = icmp sgt i32 %29, 0
  br i1 %30, label %31, label %47

31:                                               ; preds = %4
  %32 = load ptr, ptr %12, align 8, !tbaa !20
  %33 = getelementptr inbounds nuw i64, ptr %32, i32 1
  store ptr %33, ptr %12, align 8, !tbaa !20
  %34 = load ptr, ptr %13, align 8, !tbaa !20
  %35 = load ptr, ptr %12, align 8, !tbaa !20
  %36 = load i32, ptr %10, align 4, !tbaa !13
  %37 = load ptr, ptr %12, align 8, !tbaa !20
  %38 = getelementptr inbounds i64, ptr %37, i64 -1
  %39 = load i64, ptr %38, align 8, !tbaa !21
  %40 = call i64 @bn_mul_words(ptr noundef %34, ptr noundef %35, i32 noundef %36, i64 noundef %39)
  %41 = load ptr, ptr %13, align 8, !tbaa !20
  %42 = load i32, ptr %10, align 4, !tbaa !13
  %43 = sext i32 %42 to i64
  %44 = getelementptr inbounds i64, ptr %41, i64 %43
  store i64 %40, ptr %44, align 8, !tbaa !21
  %45 = load ptr, ptr %13, align 8, !tbaa !20
  %46 = getelementptr inbounds i64, ptr %45, i64 2
  store ptr %46, ptr %13, align 8, !tbaa !20
  br label %47

47:                                               ; preds = %31, %4
  %48 = load i32, ptr %7, align 4, !tbaa !13
  %49 = sub nsw i32 %48, 2
  store i32 %49, ptr %9, align 4, !tbaa !13
  br label %50

50:                                               ; preds = %71, %47
  %51 = load i32, ptr %9, align 4, !tbaa !13
  %52 = icmp sgt i32 %51, 0
  br i1 %52, label %53, label %74

53:                                               ; preds = %50
  %54 = load i32, ptr %10, align 4, !tbaa !13
  %55 = add nsw i32 %54, -1
  store i32 %55, ptr %10, align 4, !tbaa !13
  %56 = load ptr, ptr %12, align 8, !tbaa !20
  %57 = getelementptr inbounds nuw i64, ptr %56, i32 1
  store ptr %57, ptr %12, align 8, !tbaa !20
  %58 = load ptr, ptr %13, align 8, !tbaa !20
  %59 = load ptr, ptr %12, align 8, !tbaa !20
  %60 = load i32, ptr %10, align 4, !tbaa !13
  %61 = load ptr, ptr %12, align 8, !tbaa !20
  %62 = getelementptr inbounds i64, ptr %61, i64 -1
  %63 = load i64, ptr %62, align 8, !tbaa !21
  %64 = call i64 @bn_mul_add_words(ptr noundef %58, ptr noundef %59, i32 noundef %60, i64 noundef %63)
  %65 = load ptr, ptr %13, align 8, !tbaa !20
  %66 = load i32, ptr %10, align 4, !tbaa !13
  %67 = sext i32 %66 to i64
  %68 = getelementptr inbounds i64, ptr %65, i64 %67
  store i64 %64, ptr %68, align 8, !tbaa !21
  %69 = load ptr, ptr %13, align 8, !tbaa !20
  %70 = getelementptr inbounds i64, ptr %69, i64 2
  store ptr %70, ptr %13, align 8, !tbaa !20
  br label %71

71:                                               ; preds = %53
  %72 = load i32, ptr %9, align 4, !tbaa !13
  %73 = add nsw i32 %72, -1
  store i32 %73, ptr %9, align 4, !tbaa !13
  br label %50, !llvm.loop !26

74:                                               ; preds = %50
  %75 = load ptr, ptr %5, align 8, !tbaa !20
  %76 = load ptr, ptr %5, align 8, !tbaa !20
  %77 = load ptr, ptr %5, align 8, !tbaa !20
  %78 = load i32, ptr %11, align 4, !tbaa !13
  %79 = call i64 @bn_add_words(ptr noundef %75, ptr noundef %76, ptr noundef %77, i32 noundef %78)
  %80 = load ptr, ptr %8, align 8, !tbaa !20
  %81 = load ptr, ptr %6, align 8, !tbaa !20
  %82 = load i32, ptr %7, align 4, !tbaa !13
  call void @bn_sqr_words(ptr noundef %80, ptr noundef %81, i32 noundef %82)
  %83 = load ptr, ptr %5, align 8, !tbaa !20
  %84 = load ptr, ptr %5, align 8, !tbaa !20
  %85 = load ptr, ptr %8, align 8, !tbaa !20
  %86 = load i32, ptr %11, align 4, !tbaa !13
  %87 = call i64 @bn_add_words(ptr noundef %83, ptr noundef %84, ptr noundef %85, i32 noundef %86)
  call void @llvm.lifetime.end.p0(i64 8, ptr %13) #4
  call void @llvm.lifetime.end.p0(i64 8, ptr %12) #4
  call void @llvm.lifetime.end.p0(i64 4, ptr %11) #4
  call void @llvm.lifetime.end.p0(i64 4, ptr %10) #4
  call void @llvm.lifetime.end.p0(i64 4, ptr %9) #4
  ret void
}